target datalayout = "e-m:e-p270:32:32-p271:32:32-p272:64:64-i64:64-i128:128-f80:128-n8:16:32:64-S128"
target triple = "x86_64-pc-linux-gnu"

%"struct.google::SiteFlag" = type { ptr, ptr, i64, ptr }
%"class.std::chrono::duration" = type { i64 }
%"class.google::LogMessage" = type { ptr, ptr, %"struct.google::LogMessageTime" }
%"struct.google::LogMessageTime" = type { %struct.tm, %"class.std::chrono::time_point", %"class.std::chrono::duration.23", %"class.std::chrono::duration.24" }
%struct.tm = type { i32, i32, i32, i32, i32, i32, i32, i32, i32, i64, ptr }
%"class.std::chrono::time_point" = type { %"class.std::chrono::duration" }
%"class.std::chrono::duration.23" = type { i64 }
%"class.std::chrono::duration.24" = type { i64 }
%"struct.google::logging::internal::LogMessageVoidify" = type { i8 }

@_ZN3fLI7FLAGS_vE = external global i32, align 4
@.str.32 = private unnamed_addr constant [111 x i8] c"generated/home/dtcxzyw/WorkSpace/Projects/compilers/llvm-opt-benchmark/bench/glog/glog/src/logging_unittest.cc\00", align 1
@.str.218 = private unnamed_addr constant [13 x i8] c"test message\00", align 1
@_ZZL7BM_vlogiE8vlocal__ = internal global %"struct.google::SiteFlag" zeroinitializer, align 8

; Function Attrs: mustprogress nounwind uwtable
define linkonce_odr hidden void @_ZN6google7logging8internal17LogMessageVoidifyanERSo(ptr noundef nonnull align 1 dereferenceable(1) %0, ptr noundef nonnull align 8 dereferenceable(8) %1) #5 comdat align 2 {
  %3 = alloca ptr, align 8
  %4 = alloca ptr, align 8
  store ptr %0, ptr %3, align 8
  store ptr %1, ptr %4, align 8
  ret void
}

; Function Attrs: mustprogress uwtable
define internal void @_ZL7BM_vlogi(i32 noundef %0) #4 personality ptr @__gxx_personality_v0 {
  %2 = alloca i32, align 4
  %3 = alloca i32, align 4
  %4 = alloca i8, align 1
  %5 = alloca %"struct.google::logging::internal::LogMessageVoidify", align 1
  %6 = alloca %"class.google::LogMessage", align 8
  %7 = alloca i1, align 1
  %8 = alloca ptr, align 8
  %9 = alloca i32, align 4
  store i32 %0, ptr %2, align 4
  br label %10

10:                                               ; preds = %39, %1
  %11 = load i32, ptr %2, align 4
  %12 = add nsw i32 %11, -1
  store i32 %12, ptr %2, align 4
  %13 = icmp sgt i32 %11, 0
  br i1 %13, label %14, label %48

14:                                               ; preds = %10
  store i32 1, ptr %3, align 4
  %15 = load ptr, ptr @_ZZL7BM_vlogiE8vlocal__, align 8
  %16 = icmp eq ptr %15, null
  store i1 false, ptr %7, align 1
  br i1 %16, label %17, label %20

17:                                               ; preds = %14
  %18 = load i32, ptr %3, align 4
  %19 = call noundef zeroext i1 @_ZN6google11InitVLOG3__EPNS_8SiteFlagEPiPKci(ptr noundef @_ZZL7BM_vlogiE8vlocal__, ptr noundef @_ZN3fLI7FLAGS_vE, ptr noundef @.str.32, i32 noundef %18)
  br label %25

20:                                               ; preds = %14
  %21 = load ptr, ptr @_ZZL7BM_vlogiE8vlocal__, align 8
  %22 = load i32, ptr %21, align 4
  %23 = load i32, ptr %3, align 4
  %24 = icmp sge i32 %22, %23
  br label %25

25:                                               ; preds = %20, %17
  %26 = phi i1 [ %19, %17 ], [ %24, %20 ]
  %27 = zext i1 %26 to i8
  store i8 %27, ptr %4, align 1
  %28 = load i8, ptr %4, align 1
  %29 = trunc i8 %28 to i1
  br i1 %29, label %31, label %30

30:                                               ; preds = %25
  br label %36

31:                                               ; preds = %25
  call void @_ZN6google10LogMessageC1EPKci(ptr noundef nonnull align 8 dereferenceable(96) %6, ptr noundef @.str.32, i32 noundef 184)
  store i1 true, ptr %7, align 1
  %32 = invoke noundef nonnull align 8 dereferenceable(8) ptr @_ZN6google10LogMessage6streamEv(ptr noundef nonnull align 8 dereferenceable(96) %6)
          to label %33 unwind label %40

33:                                               ; preds = %31
  %34 = invoke noundef nonnull align 8 dereferenceable(8) ptr @_ZStlsISt11char_traitsIcEERSt13basic_ostreamIcT_ES5_PKc(ptr noundef nonnull align 8 dereferenceable(8) %32, ptr noundef @.str.218)
          to label %35 unwind label %40

35:                                               ; preds = %33
  call void @_ZN6google7logging8internal17LogMessageVoidifyanERSo(ptr noundef nonnull align 1 dereferenceable(1) %5, ptr noundef nonnull align 8 dereferenceable(8) %34) #3
  br label %36

36:                                               ; preds = %35, %30
  %37 = load i1, ptr %7, align 1
  br i1 %37, label %38, label %39

38:                                               ; preds = %36
  call void @_ZN6google10LogMessageD1Ev(ptr noundef nonnull align 8 dereferenceable(96) %6)
  br label %39

39:                                               ; preds = %38, %36
  br label %10, !llvm.loop !10

40:                                               ; preds = %33, %31
  %41 = landingpad { ptr, i32 }
          cleanup
  %42 = extractvalue { ptr, i32 } %41, 0
  store ptr %42, ptr %8, align 8
  %43 = extractvalue { ptr, i32 } %41, 1
  store i32 %43, ptr %9, align 4
  %44 = load i1, ptr %7, align 1
  br i1 %44, label %45, label %47

45:                                               ; preds = %40
  invoke void @_ZN6google10LogMessageD1Ev(ptr noundef nonnull align 8 dereferenceable(96) %6)
          to label %46 unwind label %54

46:                                               ; preds = %45
  br label %47

47:                                               ; preds = %46, %40
  br label %49

48:                                               ; preds = %10
  ret void

49:                                               ; preds = %47
  %50 = load ptr, ptr %8, align 8
  %51 = load i32, ptr %9, align 4
  %52 = insertvalue { ptr, i32 } poison, ptr %50, 0
  %53 = insertvalue { ptr, i32 } %52, i32 %51, 1
  resume { ptr, i32 } %53

54:                                               ; preds = %45
  %55 = landingpad { ptr, i32 }
          catch ptr null
  %56 = extractvalue { ptr, i32 } %55, 0
  call void @__clang_call_terminate(ptr %56) #24
  unreachable
}