; Function Attrs: mustprogress uwtable
define internal void @_ZL7BM_vlogi(i32 noundef %0) #3 personality ptr @__gxx_personality_v0 {
  %2 = alloca %"class.google::LogMessage", align 8
  %3 = icmp sgt i32 %0, 0
  br i1 %3, label %.lr.ph, label %._crit_edge

.lr.ph:                                           ; preds = %1, %.critedge
  %.in = phi i32 [ %4, %.critedge ], [ %0, %1 ]
  %4 = add nsw i32 %.in, -1
  %5 = load ptr, ptr @_ZZL7BM_vlogiE8vlocal__, align 8
  %6 = icmp eq ptr %5, null
  br i1 %6, label %7, label %9

7:                                                ; preds = %.lr.ph
  %8 = call noundef zeroext i1 @_ZN6google11InitVLOG3__EPNS_8SiteFlagEPiPKci(ptr noundef nonnull @_ZZL7BM_vlogiE8vlocal__, ptr noundef nonnull @_ZN3fLI7FLAGS_vE, ptr noundef nonnull @.str.32, i32 noundef 1)
  br i1 %8, label %12, label %.critedge

9:                                                ; preds = %.lr.ph
  %10 = load i32, ptr %5, align 4
  %11 = icmp sgt i32 %10, 0
  br i1 %11, label %12, label %.critedge

12:                                               ; preds = %7, %9
  call void @_ZN6google10LogMessageC1EPKci(ptr noundef nonnull align 8 dereferenceable(96) %2, ptr noundef nonnull @.str.32, i32 noundef 184)
  %13 = invoke noundef nonnull align 8 dereferenceable(8) ptr @_ZN6google10LogMessage6streamEv(ptr noundef nonnull align 8 dereferenceable(96) %2)
          to label %14 unwind label %18

14:                                               ; preds = %12
  %15 = invoke noundef nonnull align 8 dereferenceable(8) ptr @_ZStlsISt11char_traitsIcEERSt13basic_ostreamIcT_ES5_PKc(ptr noundef nonnull align 8 dereferenceable(8) %13, ptr noundef nonnull @.str.218)
          to label %16 unwind label %18

16:                                               ; preds = %14
  call void @_ZN6google10LogMessageD1Ev(ptr noundef nonnull align 8 dereferenceable(96) %2)
  br label %.critedge

.critedge:                                        ; preds = %7, %9, %16
  %17 = icmp ugt i32 %.in, 1
  br i1 %17, label %.lr.ph, label %._crit_edge, !llvm.loop !32

18:                                               ; preds = %14, %12
  %19 = landingpad { ptr, i32 }
          cleanup
  invoke void @_ZN6google10LogMessageD1Ev(ptr noundef nonnull align 8 dereferenceable(96) %2)
          to label %20 unwind label %21

._crit_edge:                                      ; preds = %.critedge, %1
  ret void

20:                                               ; preds = %18
  resume { ptr, i32 } %19

21:                                               ; preds = %18
  %22 = landingpad { ptr, i32 }
          catch ptr null
  %23 = extractvalue { ptr, i32 } %22, 0
  call void @__clang_call_terminate(ptr %23) #37
  unreachable
}